; Function Attrs: nounwind uwtable
define internal fastcc void @remove_result_refs(ptr noundef readonly captures(none) %0, i32 noundef %1, ptr noundef captures(address_is_null) %2) unnamed_addr #0 {
  %4 = alloca %struct.substitute_phv_relids_context, align 8
  %5 = alloca %struct.substitute_phv_relids_context, align 8
  %6 = getelementptr inbounds nuw i8, ptr %0, i64 16
  %7 = load ptr, ptr %6, align 8
  %8 = getelementptr inbounds nuw i8, ptr %7, i64 136
  %9 = load i32, ptr %8, align 8
  %.not = icmp eq i32 %9, 0
  br i1 %.not, label %fix_append_rel_relids.exit, label %10

10:                                               ; preds = %3
  %11 = tail call ptr @get_relids_in_jointree(ptr noundef %2, i1 noundef zeroext true, i1 noundef zeroext false)
  %12 = getelementptr inbounds nuw i8, ptr %0, i64 8
  %13 = load ptr, ptr %12, align 8
  call void @llvm.lifetime.start.p0(i64 16, ptr nonnull %5) #7
  store i32 %1, ptr %5, align 8
  %14 = getelementptr inbounds nuw i8, ptr %5, i64 4
  store i32 0, ptr %14, align 4
  %15 = getelementptr inbounds nuw i8, ptr %5, i64 8
  store ptr %11, ptr %15, align 8
  %16 = call zeroext i1 @query_or_expression_tree_walker_impl(ptr noundef %13, ptr noundef nonnull @substitute_phv_relids_walker, ptr noundef nonnull %5, i32 noundef 0) #7
  call void @llvm.lifetime.end.p0(i64 16, ptr nonnull %5) #7
  %17 = getelementptr inbounds nuw i8, ptr %0, i64 256
  %18 = load ptr, ptr %17, align 8
  %19 = getelementptr inbounds nuw i8, ptr %18, i64 4
  %.not.i = icmp eq ptr %18, null
  br i1 %.not.i, label %fix_append_rel_relids.exit, label %.lr.ph.i

.lr.ph.i:                                         ; preds = %10
  %20 = getelementptr inbounds nuw i8, ptr %18, i64 16
  %21 = getelementptr inbounds nuw i8, ptr %4, i64 4
  %22 = getelementptr inbounds nuw i8, ptr %4, i64 8
  %23 = load i32, ptr %19, align 4
  %24 = icmp sgt i32 %23, 0
  br i1 %24, label %.lr.ph26.i, label %fix_append_rel_relids.exit

.lr.ph26.i:                                       ; preds = %.lr.ph.i, %44
  %indvars.iv.i = phi i64 [ %indvars.iv.next.i, %44 ], [ 0, %.lr.ph.i ]
  %.0152224.i = phi i32 [ %.1.i, %44 ], [ -1, %.lr.ph.i ]
  %25 = load ptr, ptr %20, align 8
  %26 = getelementptr inbounds nuw %union.ListCell, ptr %25, i64 %indvars.iv.i
  %27 = load ptr, ptr %26, align 8
  %28 = getelementptr inbounds nuw i8, ptr %27, i64 8
  %29 = load i32, ptr %28, align 8
  %30 = icmp eq i32 %29, %1
  br i1 %30, label %31, label %36

31:                                               ; preds = %.lr.ph26.i
  %32 = icmp slt i32 %.0152224.i, 0
  br i1 %32, label %33, label %35

33:                                               ; preds = %31
  %34 = call i32 @bms_singleton_member(ptr noundef %11) #7
  br label %35

35:                                               ; preds = %33, %31
  %.2.i = phi i32 [ %34, %33 ], [ %.0152224.i, %31 ]
  store i32 %.2.i, ptr %28, align 8
  br label %36

36:                                               ; preds = %35, %.lr.ph26.i
  %.1.i = phi i32 [ %.2.i, %35 ], [ %.0152224.i, %.lr.ph26.i ]
  %37 = load ptr, ptr %6, align 8
  %38 = getelementptr inbounds nuw i8, ptr %37, i64 136
  %39 = load i32, ptr %38, align 8
  %.not18.i = icmp eq i32 %39, 0
  br i1 %.not18.i, label %44, label %40

40:                                               ; preds = %36
  %41 = getelementptr inbounds nuw i8, ptr %27, i64 24
  %42 = load ptr, ptr %41, align 8
  call void @llvm.lifetime.start.p0(i64 16, ptr nonnull %4) #7
  store i32 %1, ptr %4, align 8
  store i32 0, ptr %21, align 4
  store ptr %11, ptr %22, align 8
  %43 = call zeroext i1 @query_or_expression_tree_walker_impl(ptr noundef %42, ptr noundef nonnull @substitute_phv_relids_walker, ptr noundef nonnull %4, i32 noundef 0) #7
  call void @llvm.lifetime.end.p0(i64 16, ptr nonnull %4) #7
  br label %44

44:                                               ; preds = %40, %36
  %indvars.iv.next.i = add nuw nsw i64 %indvars.iv.i, 1
  %45 = load i32, ptr %19, align 4
  %46 = sext i32 %45 to i64
  %47 = icmp slt i64 %indvars.iv.next.i, %46
  br i1 %47, label %.lr.ph26.i, label %fix_append_rel_relids.exit

fix_append_rel_relids.exit:                       ; preds = %44, %.lr.ph.i, %10, %3
  ret void
}